; Function Attrs: mustprogress uwtable
define void @_ZN5faiss16IndexIVFFastScanC2Ev(ptr noundef nonnull align 8 dereferenceable(344) %0) unnamed_addr #2 align 2 {
  tail call void @_ZN5faiss8IndexIVFC2Ev(ptr noundef nonnull align 8 dereferenceable(265) %0)
  store ptr getelementptr inbounds nuw inrange(-16, 288) (i8, ptr @_ZTVN5faiss16IndexIVFFastScanE, i64 16), ptr %0, align 8, !tbaa !25
  %2 = getelementptr inbounds nuw i8, ptr %0, i64 40
  store ptr getelementptr inbounds nuw inrange(-16, 32) (i8, ptr @_ZTVN5faiss16IndexIVFFastScanE, i64 320), ptr %2, align 8, !tbaa !25
  %3 = getelementptr inbounds nuw i8, ptr %0, i64 320
  %4 = getelementptr inbounds nuw i8, ptr %0, i64 268
  store i32 0, ptr %4, align 4, !tbaa !62
  %5 = getelementptr inbounds nuw i8, ptr %0, i64 296
  %6 = getelementptr inbounds nuw i8, ptr %0, i64 25
  store i8 0, ptr %6, align 1, !tbaa !4
  %7 = getelementptr inbounds nuw i8, ptr %0, i64 264
  store i8 0, ptr %7, align 8, !tbaa !92
  tail call void @llvm.memset.p0.i64(ptr noundef nonnull align 8 dereferenceable(20) %5, i8 0, i64 20, i1 false)
  tail call void @llvm.memset.p0.i64(ptr noundef nonnull align 8 dereferenceable(24) %3, i8 0, i64 24, i1 false)
  ret void
}